; Function Attrs: mustprogress nounwind uwtable
define void @_ZN6icu_7524CollationElementIteratorD2Ev(ptr noundef nonnull align 8 dereferenceable(104) %this) unnamed_addr #3 align 2 {
entry:
  %iter_ = getelementptr inbounds i8, ptr %this, i64 8
  %0 = load ptr, ptr %iter_, align 8
  %isnull = icmp eq ptr %0, null
  br i1 %isnull, label %delete.end, label %delete.notnull

delete.notnull:                                   ; preds = %entry
  %vtable = load ptr, ptr %0, align 8
  %vfn = getelementptr inbounds i8, ptr %vtable, i64 8
  %1 = load ptr, ptr %vfn, align 8
  tail call void %1(ptr noundef nonnull align 8 dereferenceable(389) %0) #8
  br label %delete.end

delete.end:                                       ; preds = %delete.notnull, %entry
  %offsets_ = getelementptr inbounds i8, ptr %this, i64 32
  %2 = load ptr, ptr %offsets_, align 8
  %isnull2 = icmp eq ptr %2, null
  br i1 %isnull2, label %delete.end6, label %delete.notnull3

delete.notnull3:                                  ; preds = %delete.end
  %vtable4 = load ptr, ptr %2, align 8
  %vfn5 = getelementptr inbounds i8, ptr %vtable4, i64 8
  %3 = load ptr, ptr %vfn5, align 8
  tail call void %3(ptr noundef nonnull align 8 dereferenceable(32) %2) #8
  br label %delete.end6

delete.end6:                                      ; preds = %delete.notnull3, %delete.end
  %string_ = getelementptr inbounds i8, ptr %this, i64 40
  tail call void @_ZN6icu_7513UnicodeStringD1Ev(ptr noundef nonnull align 8 dereferenceable(64) %string_) #8
  tail call void @_ZN6icu_757UObjectD2Ev(ptr noundef nonnull align 8 dereferenceable(8) %this) #8
  ret void
}